target datalayout = "e-m:e-p270:32:32-p271:32:32-p272:64:64-i64:64-i128:128-f80:128-n8:16:32:64-S128"
target triple = "x86_64-pc-linux-gnu"

@.str.4 = private unnamed_addr constant [2 x i8] c"\0A\00", align 1
@.str.5 = private unnamed_addr constant [42 x i8] c"    extract_reduce [options] [selection]\0A\00", align 1
@.str.6 = private unnamed_addr constant [43 x i8] c"converts gate chains into $reduce_* cells\0A\00", align 1
@.str.7 = private unnamed_addr constant [80 x i8] c"This command finds chains of $_AND_, $_OR_, and $_XOR_ cells and replaces them\0A\00", align 1
@.str.8 = private unnamed_addr constant [81 x i8] c"with their corresponding $reduce_* cells. Because this command only operates on\0A\00", align 1
@.str.9 = private unnamed_addr constant [80 x i8] c"these cell types, it is recommended to map the design to only these cell types\0A\00", align 1
@.str.10 = private unnamed_addr constant [80 x i8] c"using the `abc -g` command. Note that, in some cases, it may be more effective\0A\00", align 1
@.str.11 = private unnamed_addr constant [79 x i8] c"to map the design to only $_AND_ cells, run extract_reduce, map the remaining\0A\00", align 1
@.str.12 = private unnamed_addr constant [80 x i8] c"parts of the design to AND/OR/XOR cells, and run extract_reduce a second time.\0A\00", align 1
@.str.13 = private unnamed_addr constant [22 x i8] c"    -allow-off-chain\0A\00", align 1
@.str.14 = private unnamed_addr constant [81 x i8] c"        Allows matching of cells that have loads outside the chain. These cells\0A\00", align 1
@.str.15 = private unnamed_addr constant [81 x i8] c"        will be replicated and folded into the $reduce_* cell, but the original\0A\00", align 1
@.str.16 = private unnamed_addr constant [55 x i8] c"        cell will remain, driving its original loads.\0A\00", align 1

; Function Attrs: mustprogress uwtable
define internal void @_ZN12_GLOBAL__N_117ExtractReducePass4helpEv(ptr noundef nonnull align 8 dereferenceable(104) %0) unnamed_addr #4 align 2 {
  %2 = alloca ptr, align 8
  store ptr %0, ptr %2, align 8, !tbaa !6
  call void (ptr, ...) @_ZN5Yosys3logEPKcz(ptr noundef @.str.4)
  call void (ptr, ...) @_ZN5Yosys3logEPKcz(ptr noundef @.str.5)
  call void (ptr, ...) @_ZN5Yosys3logEPKcz(ptr noundef @.str.4)
  call void (ptr, ...) @_ZN5Yosys3logEPKcz(ptr noundef @.str.6)
  call void (ptr, ...) @_ZN5Yosys3logEPKcz(ptr noundef @.str.4)
  call void (ptr, ...) @_ZN5Yosys3logEPKcz(ptr noundef @.str.7)
  call void (ptr, ...) @_ZN5Yosys3logEPKcz(ptr noundef @.str.8)
  call void (ptr, ...) @_ZN5Yosys3logEPKcz(ptr noundef @.str.9)
  call void (ptr, ...) @_ZN5Yosys3logEPKcz(ptr noundef @.str.10)
  call void (ptr, ...) @_ZN5Yosys3logEPKcz(ptr noundef @.str.11)
  call void (ptr, ...) @_ZN5Yosys3logEPKcz(ptr noundef @.str.12)
  call void (ptr, ...) @_ZN5Yosys3logEPKcz(ptr noundef @.str.4)
  call void (ptr, ...) @_ZN5Yosys3logEPKcz(ptr noundef @.str.13)
  call void (ptr, ...) @_ZN5Yosys3logEPKcz(ptr noundef @.str.14)
  call void (ptr, ...) @_ZN5Yosys3logEPKcz(ptr noundef @.str.15)
  call void (ptr, ...) @_ZN5Yosys3logEPKcz(ptr noundef @.str.16)
  call void (ptr, ...) @_ZN5Yosys3logEPKcz(ptr noundef @.str.4)
  ret void
}